target datalayout = "e-m:e-p270:32:32-p271:32:32-p272:64:64-i64:64-i128:128-f80:128-n8:16:32:64-S128"
target triple = "x86_64-pc-linux-gnu"

%struct.tsi_fake_handshaker = type { %struct.tsi_handshaker, i32, i32, i32, %struct.tsi_fake_frame, %struct.tsi_fake_frame, ptr, i64, i32 }
%struct.tsi_handshaker = type { ptr, i8, i8, i8 }
%struct.tsi_fake_frame = type { ptr, i64, i64, i64, i32 }

; Function Attrs: mustprogress uwtable
define internal void @_ZL23tsi_fake_frame_destructP14tsi_fake_frame(ptr noundef %0) #4 {
  %2 = alloca ptr, align 8
  store ptr %0, ptr %2, align 8, !tbaa !105
  %3 = load ptr, ptr %2, align 8, !tbaa !105
  %4 = getelementptr inbounds nuw %struct.tsi_fake_frame, ptr %3, i32 0, i32 0
  %5 = load ptr, ptr %4, align 8, !tbaa !107
  %6 = icmp ne ptr %5, null
  br i1 %6, label %7, label %11

7:                                                ; preds = %1
  %8 = load ptr, ptr %2, align 8, !tbaa !105
  %9 = getelementptr inbounds nuw %struct.tsi_fake_frame, ptr %8, i32 0, i32 0
  %10 = load ptr, ptr %9, align 8, !tbaa !107
  call void @gpr_free(ptr noundef %10)
  br label %11

11:                                               ; preds = %7, %1
  ret void
}

; Function Attrs: mustprogress uwtable
define internal void @_ZL23fake_handshaker_destroyP14tsi_handshaker(ptr noundef %0) #4 {
  %2 = alloca ptr, align 8
  %3 = alloca ptr, align 8
  store ptr %0, ptr %2, align 8, !tbaa !93
  call void @llvm.lifetime.start.p0(i64 8, ptr %3) #3
  %4 = load ptr, ptr %2, align 8, !tbaa !93
  store ptr %4, ptr %3, align 8, !tbaa !27
  %5 = load ptr, ptr %3, align 8, !tbaa !27
  %6 = getelementptr inbounds nuw %struct.tsi_fake_handshaker, ptr %5, i32 0, i32 4
  call void @_ZL23tsi_fake_frame_destructP14tsi_fake_frame(ptr noundef %6)
  %7 = load ptr, ptr %3, align 8, !tbaa !27
  %8 = getelementptr inbounds nuw %struct.tsi_fake_handshaker, ptr %7, i32 0, i32 5
  call void @_ZL23tsi_fake_frame_destructP14tsi_fake_frame(ptr noundef %8)
  %9 = load ptr, ptr %3, align 8, !tbaa !27
  %10 = getelementptr inbounds nuw %struct.tsi_fake_handshaker, ptr %9, i32 0, i32 6
  %11 = load ptr, ptr %10, align 8, !tbaa !40
  call void @gpr_free(ptr noundef %11)
  %12 = load ptr, ptr %2, align 8, !tbaa !93
  call void @gpr_free(ptr noundef %12)
  call void @llvm.lifetime.end.p0(i64 8, ptr %3) #3
  ret void
}