; Function Attrs: mustprogress uwtable
define internal void @_ZL23fake_handshaker_destroyP14tsi_handshaker(ptr noundef %0) #3 {
  %2 = getelementptr inbounds nuw i8, ptr %0, i64 32
  %.val = load ptr, ptr %2, align 8, !tbaa !54
  %.not.i = icmp eq ptr %.val, null
  br i1 %.not.i, label %_ZL23tsi_fake_frame_destructP14tsi_fake_frame.exit, label %3

3:                                                ; preds = %1
  tail call void @gpr_free(ptr noundef nonnull %.val)
  br label %_ZL23tsi_fake_frame_destructP14tsi_fake_frame.exit

_ZL23tsi_fake_frame_destructP14tsi_fake_frame.exit: ; preds = %1, %3
  %4 = getelementptr inbounds nuw i8, ptr %0, i64 72
  %.val5 = load ptr, ptr %4, align 8, !tbaa !54
  %.not.i6 = icmp eq ptr %.val5, null
  br i1 %.not.i6, label %_ZL23tsi_fake_frame_destructP14tsi_fake_frame.exit7, label %5

5:                                                ; preds = %_ZL23tsi_fake_frame_destructP14tsi_fake_frame.exit
  tail call void @gpr_free(ptr noundef nonnull %.val5)
  br label %_ZL23tsi_fake_frame_destructP14tsi_fake_frame.exit7

_ZL23tsi_fake_frame_destructP14tsi_fake_frame.exit7: ; preds = %_ZL23tsi_fake_frame_destructP14tsi_fake_frame.exit, %5
  %6 = getelementptr inbounds nuw i8, ptr %0, i64 112
  %7 = load ptr, ptr %6, align 8, !tbaa !37
  tail call void @gpr_free(ptr noundef %7)
  tail call void @gpr_free(ptr noundef nonnull %0)
  ret void
}